target datalayout = "e-m:e-p270:32:32-p271:32:32-p272:64:64-i64:64-i128:128-f80:128-n8:16:32:64-S128"
target triple = "x86_64-pc-linux-gnu"

%struct.sockaddr = type { i16, [14 x i8] }
%struct.sockaddr_un = type { i16, [108 x i8] }
%struct.sockaddr_in = type { i16, i16, %struct.in_addr, [8 x i8] }
%struct.in_addr = type { i32 }
%struct.sockaddr_in6 = type { i16, i16, i32, %struct.in6_addr, i32 }
%struct.in6_addr = type { %union.anon }
%union.anon = type { [4 x i32] }

; Function Attrs: nounwind uwtable
define i32 @BIO_ADDR_rawaddress(ptr noundef %0, ptr noundef %1, ptr noundef %2) #0 {
  %4 = alloca i32, align 4
  %5 = alloca ptr, align 8
  %6 = alloca ptr, align 8
  %7 = alloca ptr, align 8
  %8 = alloca i64, align 8
  %9 = alloca ptr, align 8
  %10 = alloca i32, align 4
  store ptr %0, ptr %5, align 8, !tbaa !3
  store ptr %1, ptr %6, align 8, !tbaa !16
  store ptr %2, ptr %7, align 8, !tbaa !22
  call void @llvm.lifetime.start.p0(i64 8, ptr %8) #9
  store i64 0, ptr %8, align 8, !tbaa !17
  call void @llvm.lifetime.start.p0(i64 8, ptr %9) #9
  store ptr null, ptr %9, align 8, !tbaa !16
  %11 = load ptr, ptr %5, align 8, !tbaa !3
  %12 = getelementptr inbounds nuw %struct.sockaddr, ptr %11, i32 0, i32 0
  %13 = load i16, ptr %12, align 4, !tbaa !8
  %14 = zext i16 %13 to i32
  %15 = icmp eq i32 %14, 2
  br i1 %15, label %16, label %19

16:                                               ; preds = %3
  store i64 4, ptr %8, align 8, !tbaa !17
  %17 = load ptr, ptr %5, align 8, !tbaa !3
  %18 = getelementptr inbounds nuw %struct.sockaddr_in, ptr %17, i32 0, i32 2
  store ptr %18, ptr %9, align 8, !tbaa !16
  br label %43

19:                                               ; preds = %3
  %20 = load ptr, ptr %5, align 8, !tbaa !3
  %21 = getelementptr inbounds nuw %struct.sockaddr, ptr %20, i32 0, i32 0
  %22 = load i16, ptr %21, align 4, !tbaa !8
  %23 = zext i16 %22 to i32
  %24 = icmp eq i32 %23, 10
  br i1 %24, label %25, label %28

25:                                               ; preds = %19
  store i64 16, ptr %8, align 8, !tbaa !17
  %26 = load ptr, ptr %5, align 8, !tbaa !3
  %27 = getelementptr inbounds nuw %struct.sockaddr_in6, ptr %26, i32 0, i32 3
  store ptr %27, ptr %9, align 8, !tbaa !16
  br label %42

28:                                               ; preds = %19
  %29 = load ptr, ptr %5, align 8, !tbaa !3
  %30 = getelementptr inbounds nuw %struct.sockaddr, ptr %29, i32 0, i32 0
  %31 = load i16, ptr %30, align 4, !tbaa !8
  %32 = zext i16 %31 to i32
  %33 = icmp eq i32 %32, 1
  br i1 %33, label %34, label %41

34:                                               ; preds = %28
  %35 = load ptr, ptr %5, align 8, !tbaa !3
  %36 = getelementptr inbounds nuw %struct.sockaddr_un, ptr %35, i32 0, i32 1
  %37 = getelementptr inbounds [108 x i8], ptr %36, i64 0, i64 0
  %38 = call i64 @strlen(ptr noundef %37) #10
  store i64 %38, ptr %8, align 8, !tbaa !17
  %39 = load ptr, ptr %5, align 8, !tbaa !3
  %40 = getelementptr inbounds nuw %struct.sockaddr_un, ptr %39, i32 0, i32 1
  store ptr %40, ptr %9, align 8, !tbaa !16
  br label %41

41:                                               ; preds = %34, %28
  br label %42

42:                                               ; preds = %41, %25
  br label %43

43:                                               ; preds = %42, %16
  %44 = load ptr, ptr %9, align 8, !tbaa !16
  %45 = icmp eq ptr %44, null
  br i1 %45, label %46, label %47

46:                                               ; preds = %43
  store i32 0, ptr %4, align 4
  store i32 1, ptr %10, align 4
  br label %61

47:                                               ; preds = %43
  %48 = load ptr, ptr %6, align 8, !tbaa !16
  %49 = icmp ne ptr %48, null
  br i1 %49, label %50, label %54

50:                                               ; preds = %47
  %51 = load ptr, ptr %6, align 8, !tbaa !16
  %52 = load ptr, ptr %9, align 8, !tbaa !16
  %53 = load i64, ptr %8, align 8, !tbaa !17
  call void @llvm.memcpy.p0.p0.i64(ptr align 1 %51, ptr align 1 %52, i64 %53, i1 false)
  br label %54

54:                                               ; preds = %50, %47
  %55 = load ptr, ptr %7, align 8, !tbaa !22
  %56 = icmp ne ptr %55, null
  br i1 %56, label %57, label %60

57:                                               ; preds = %54
  %58 = load i64, ptr %8, align 8, !tbaa !17
  %59 = load ptr, ptr %7, align 8, !tbaa !22
  store i64 %58, ptr %59, align 8, !tbaa !17
  br label %60

60:                                               ; preds = %57, %54
  store i32 1, ptr %4, align 4
  store i32 1, ptr %10, align 4
  br label %61

61:                                               ; preds = %60, %46
  call void @llvm.lifetime.end.p0(i64 8, ptr %9) #9
  call void @llvm.lifetime.end.p0(i64 8, ptr %8) #9
  %62 = load i32, ptr %4, align 4
  ret i32 %62
}