; Function Attrs: mustprogress nofree nounwind willreturn memory(argmem: readwrite) uwtable
define range(i32 0, 2) i32 @BIO_ADDR_rawaddress(ptr noundef readonly captures(none) %0, ptr noundef writeonly captures(address_is_null) %1, ptr noundef writeonly captures(address_is_null) %2) local_unnamed_addr #7 {
  %4 = load i16, ptr %0, align 4, !tbaa !3
  switch i16 %4, label %16 [
    i16 2, label %5
    i16 10, label %7
    i16 1, label %9
  ]

5:                                                ; preds = %3
  %6 = getelementptr inbounds nuw i8, ptr %0, i64 4
  br label %12

7:                                                ; preds = %3
  %8 = getelementptr inbounds nuw i8, ptr %0, i64 8
  br label %12

9:                                                ; preds = %3
  %10 = getelementptr inbounds nuw i8, ptr %0, i64 2
  %11 = tail call i64 @strlen(ptr noundef nonnull dereferenceable(1) %10) #16
  br label %12

12:                                               ; preds = %5, %7, %9
  %.015.ph = phi i64 [ %11, %9 ], [ 16, %7 ], [ 4, %5 ]
  %.0.ph = phi ptr [ %10, %9 ], [ %8, %7 ], [ %6, %5 ]
  %.not = icmp eq ptr %1, null
  br i1 %.not, label %14, label %13

13:                                               ; preds = %12
  tail call void @llvm.memcpy.p0.p0.i64(ptr nonnull align 1 %1, ptr nonnull align 1 %.0.ph, i64 %.015.ph, i1 false)
  br label %14

14:                                               ; preds = %13, %12
  %.not20 = icmp eq ptr %2, null
  br i1 %.not20, label %16, label %15

15:                                               ; preds = %14
  store i64 %.015.ph, ptr %2, align 8, !tbaa !12
  br label %16

16:                                               ; preds = %3, %14, %15
  %.016 = phi i32 [ 1, %15 ], [ 1, %14 ], [ 0, %3 ]
  ret i32 %.016
}